; Function Attrs: mustprogress uwtable
define internal noundef zeroext i1 @"_ZNSt17_Function_handlerIFbRKNSt7__cxx1112basic_stringIcSt11char_traitsIcESaIcEEEEZN10cmDebugger25cmDebuggerVariablesHelper6CreateERKSt10shared_ptrINS9_26cmDebuggerVariablesManagerEES7_bRKSB_INS9_20cmDebuggerStackFrameEEE3$_0E9_M_invokeERKSt9_Any_dataS7_"(ptr nocapture nonnull readnone align 8 %0, ptr noundef nonnull align 8 dereferenceable(32) %1) #3 align 2 {
  %3 = tail call noundef i64 @_ZNKSt7__cxx1112basic_stringIcSt11char_traitsIcESaIcEE5rfindEPKcm(ptr noundef nonnull align 8 dereferenceable(32) %1, ptr noundef nonnull @.str.70, i64 noundef -1)
  %4 = tail call noundef i64 @_ZNKSt7__cxx1112basic_stringIcSt11char_traitsIcESaIcEE5rfindEPKcm(ptr noundef nonnull align 8 dereferenceable(32) %1, ptr noundef nonnull @.str.71, i64 noundef -1)
  %5 = icmp eq i64 %3, -1
  br i1 %5, label %9, label %6

6:                                                ; preds = %2
  %7 = tail call noundef i64 @_ZNKSt7__cxx1112basic_stringIcSt11char_traitsIcESaIcEE4sizeEv(ptr noundef nonnull align 8 dereferenceable(32) %1) #19
  %8 = add i64 %7, -4
  %.not.i.i.i = icmp eq i64 %3, %8
  br i1 %.not.i.i.i, label %"_ZSt10__invoke_rIbRZN10cmDebugger25cmDebuggerVariablesHelper6CreateERKSt10shared_ptrINS0_26cmDebuggerVariablesManagerEERKNSt7__cxx1112basic_stringIcSt11char_traitsIcESaIcEEEbRKS2_INS0_20cmDebuggerStackFrameEEE3$_0JSE_EENSt9enable_ifIX16is_invocable_r_vIT_T0_DpT1_EESM_E4typeEOSN_DpOSO_.exit", label %9

9:                                                ; preds = %6, %2
  %10 = icmp eq i64 %4, -1
  br i1 %10, label %"_ZSt10__invoke_rIbRZN10cmDebugger25cmDebuggerVariablesHelper6CreateERKSt10shared_ptrINS0_26cmDebuggerVariablesManagerEERKNSt7__cxx1112basic_stringIcSt11char_traitsIcESaIcEEEbRKS2_INS0_20cmDebuggerStackFrameEEE3$_0JSE_EENSt9enable_ifIX16is_invocable_r_vIT_T0_DpT1_EESM_E4typeEOSN_DpOSO_.exit", label %11

11:                                               ; preds = %9
  %12 = tail call noundef i64 @_ZNKSt7__cxx1112basic_stringIcSt11char_traitsIcESaIcEE4sizeEv(ptr noundef nonnull align 8 dereferenceable(32) %1) #19
  %13 = add i64 %12, -10
  %14 = icmp eq i64 %4, %13
  br label %"_ZSt10__invoke_rIbRZN10cmDebugger25cmDebuggerVariablesHelper6CreateERKSt10shared_ptrINS0_26cmDebuggerVariablesManagerEERKNSt7__cxx1112basic_stringIcSt11char_traitsIcESaIcEEEbRKS2_INS0_20cmDebuggerStackFrameEEE3$_0JSE_EENSt9enable_ifIX16is_invocable_r_vIT_T0_DpT1_EESM_E4typeEOSN_DpOSO_.exit"

"_ZSt10__invoke_rIbRZN10cmDebugger25cmDebuggerVariablesHelper6CreateERKSt10shared_ptrINS0_26cmDebuggerVariablesManagerEERKNSt7__cxx1112basic_stringIcSt11char_traitsIcESaIcEEEbRKS2_INS0_20cmDebuggerStackFrameEEE3$_0JSE_EENSt9enable_ifIX16is_invocable_r_vIT_T0_DpT1_EESM_E4typeEOSN_DpOSO_.exit": ; preds = %6, %9, %11
  %15 = phi i1 [ true, %6 ], [ false, %9 ], [ %14, %11 ]
  ret i1 %15
}